target datalayout = "e-m:e-p270:32:32-p271:32:32-p272:64:64-i64:64-i128:128-f80:128-n8:16:32:64-S128"
target triple = "x86_64-unknown-linux-gnu"

module asm ".section\09\22.initcall4.init\22, \22a\22\09\09"
module asm "__initcall__kmod_crc32c_generic__303_161_crc32c_mod_init4:\09\09\09"
module asm ".long\09crc32c_mod_init - .\09"
module asm ".previous\09\09\09\09\09"

%struct.shash_alg = type { ptr, ptr, ptr, ptr, ptr, ptr, ptr, ptr, ptr, ptr, ptr, i32, %union.anon }
%union.anon = type { %struct.anon }
%struct.anon = type { i32, i32, %struct.crypto_alg }
%struct.crypto_alg = type { %struct.list_head, %struct.list_head, i32, i32, i32, i32, i32, %struct.refcount_struct, [128 x i8], [128 x i8], ptr, %union.anon.0, ptr, ptr, ptr, ptr }
%struct.list_head = type { ptr, ptr }
%struct.refcount_struct = type { %struct.atomic_t }
%struct.atomic_t = type { i32 }
%union.anon.0 = type { %struct.cipher_alg }
%struct.cipher_alg = type { i32, i32, ptr, ptr, ptr }

@alg = internal global %struct.shash_alg { ptr @chksum_init, ptr @chksum_update, ptr @chksum_final, ptr @chksum_finup, ptr @chksum_digest, ptr null, ptr null, ptr @chksum_setkey, ptr null, ptr null, ptr null, i32 4, %union.anon { %struct.anon { i32 4, i32 0, %struct.crypto_alg { %struct.list_head zeroinitializer, %struct.list_head zeroinitializer, i32 16384, i32 1, i32 4, i32 0, i32 100, %struct.refcount_struct zeroinitializer, [128 x i8] c"crc32c\00\00\00\00\00\00\00\00\00\00\00\00\00\00\00\00\00\00\00\00\00\00\00\00\00\00\00\00\00\00\00\00\00\00\00\00\00\00\00\00\00\00\00\00\00\00\00\00\00\00\00\00\00\00\00\00\00\00\00\00\00\00\00\00\00\00\00\00\00\00\00\00\00\00\00\00\00\00\00\00\00\00\00\00\00\00\00\00\00\00\00\00\00\00\00\00\00\00\00\00\00\00\00\00\00\00\00\00\00\00\00\00\00\00\00\00\00\00\00\00\00\00", [128 x i8] c"crc32c-generic\00\00\00\00\00\00\00\00\00\00\00\00\00\00\00\00\00\00\00\00\00\00\00\00\00\00\00\00\00\00\00\00\00\00\00\00\00\00\00\00\00\00\00\00\00\00\00\00\00\00\00\00\00\00\00\00\00\00\00\00\00\00\00\00\00\00\00\00\00\00\00\00\00\00\00\00\00\00\00\00\00\00\00\00\00\00\00\00\00\00\00\00\00\00\00\00\00\00\00\00\00\00\00\00\00\00\00\00\00\00\00\00\00\00", ptr null, %union.anon.0 zeroinitializer, ptr @crc32c_cra_init, ptr null, ptr null, ptr null } } } }, align 8
@__UNIQUE_ID___addressable_crc32c_mod_init304 = internal global ptr @crc32c_mod_init, section ".discard.addressable", align 8
@__exitcall_crc32c_mod_fini = internal global ptr @crc32c_mod_fini, section ".exitcall.exit", align 8
@__UNIQUE_ID_author305 = internal constant [56 x i8] c"crc32c_generic.author=Clay Haapala <chaapala@cisco.com>\00", section ".modinfo", align 1
@__UNIQUE_ID_description306 = internal constant [83 x i8] c"crc32c_generic.description=CRC32c (Castagnoli) calculations wrapper for lib/crc32c\00", section ".modinfo", align 1
@__UNIQUE_ID_file307 = internal constant [42 x i8] c"crc32c_generic.file=crypto/crc32c_generic\00", section ".modinfo", align 1
@__UNIQUE_ID_license308 = internal constant [27 x i8] c"crc32c_generic.license=GPL\00", section ".modinfo", align 1
@__UNIQUE_ID_alias_userspace309 = internal constant [28 x i8] c"crc32c_generic.alias=crc32c\00", section ".modinfo", align 1
@__UNIQUE_ID_alias_crypto310 = internal constant [35 x i8] c"crc32c_generic.alias=crypto-crc32c\00", section ".modinfo", align 1
@__UNIQUE_ID_alias_userspace311 = internal constant [36 x i8] c"crc32c_generic.alias=crc32c-generic\00", section ".modinfo", align 1
@__UNIQUE_ID_alias_crypto312 = internal constant [43 x i8] c"crc32c_generic.alias=crypto-crc32c-generic\00", section ".modinfo", align 1
@llvm.compiler.used = appending global [11 x ptr] [ptr @__UNIQUE_ID___addressable_crc32c_mod_init304, ptr @__UNIQUE_ID_alias_crypto310, ptr @__UNIQUE_ID_alias_crypto312, ptr @__UNIQUE_ID_alias_userspace309, ptr @__UNIQUE_ID_alias_userspace311, ptr @__UNIQUE_ID_author305, ptr @__UNIQUE_ID_description306, ptr @__UNIQUE_ID_file307, ptr @__UNIQUE_ID_license308, ptr @__exitcall_crc32c_mod_fini, ptr @crc32c_mod_fini], section "llvm.metadata"

; Function Attrs: cold fn_ret_thunk_extern nounwind null_pointer_is_valid optsize
define internal void @crc32c_mod_fini() #0 section ".exit.text" align 16 {
  tail call void @crypto_unregister_shash(ptr noundef nonnull @alg) #7
  ret void
}

; Function Attrs: null_pointer_is_valid
declare dso_local void @crypto_unregister_shash(ptr noundef) local_unnamed_addr #1

; Function Attrs: cold fn_ret_thunk_extern nounwind null_pointer_is_valid optsize
define internal i32 @crc32c_mod_init() #0 section ".init.text" align 16 {
  %1 = tail call i32 @crypto_register_shash(ptr noundef nonnull @alg) #7
  ret i32 %1
}

; Function Attrs: fn_ret_thunk_extern mustprogress nofree norecurse nosync nounwind null_pointer_is_valid willreturn memory(read, argmem: readwrite, inaccessiblemem: none)
define internal noundef i32 @chksum_init(ptr nocapture noundef %0) #2 align 16 {
  %2 = load ptr, ptr %0, align 8
  %3 = getelementptr inbounds i8, ptr %2, i64 40
  %4 = getelementptr inbounds i8, ptr %0, i64 8
  %5 = load i32, ptr %3, align 4
  store i32 %5, ptr %4, align 4
  ret i32 0
}

; Function Attrs: fn_ret_thunk_extern mustprogress nofree nounwind null_pointer_is_valid willreturn memory(read, argmem: readwrite)
define internal noundef i32 @chksum_update(ptr nocapture noundef %0, ptr noundef %1, i32 noundef %2) #3 align 16 {
  %4 = getelementptr inbounds i8, ptr %0, i64 8
  %5 = load i32, ptr %4, align 4
  %6 = zext i32 %2 to i64
  %7 = tail call i32 @__crc32c_le(i32 noundef %5, ptr noundef %1, i64 noundef %6) #8
  store i32 %7, ptr %4, align 4
  ret i32 0
}

; Function Attrs: fn_ret_thunk_extern mustprogress nofree norecurse nosync nounwind null_pointer_is_valid willreturn memory(argmem: readwrite)
define internal noundef i32 @chksum_final(ptr nocapture noundef readonly %0, ptr nocapture noundef writeonly %1) #4 align 16 {
  %3 = getelementptr inbounds i8, ptr %0, i64 8
  %4 = load i32, ptr %3, align 4
  %5 = xor i32 %4, -1
  store i32 %5, ptr %1, align 1
  ret i32 0
}

; Function Attrs: fn_ret_thunk_extern mustprogress nofree nounwind null_pointer_is_valid willreturn memory(read, argmem: readwrite)
define internal noundef i32 @chksum_finup(ptr nocapture noundef readonly %0, ptr noundef %1, i32 noundef %2, ptr nocapture noundef writeonly %3) #3 align 16 {
  %5 = getelementptr inbounds i8, ptr %0, i64 8
  %6 = load i32, ptr %5, align 4
  %7 = zext i32 %2 to i64
  %8 = tail call i32 @__crc32c_le(i32 noundef %6, ptr noundef %1, i64 noundef %7) #8
  %9 = xor i32 %8, -1
  store i32 %9, ptr %3, align 1
  ret i32 0
}

; Function Attrs: fn_ret_thunk_extern mustprogress nofree nounwind null_pointer_is_valid willreturn memory(read, argmem: readwrite)
define internal noundef i32 @chksum_digest(ptr nocapture noundef readonly %0, ptr noundef %1, i32 noundef %2, ptr nocapture noundef writeonly %3) #3 align 16 {
  %5 = load ptr, ptr %0, align 8
  %6 = getelementptr inbounds i8, ptr %5, i64 40
  %7 = load i32, ptr %6, align 4
  %8 = zext i32 %2 to i64
  %9 = tail call i32 @__crc32c_le(i32 noundef %7, ptr noundef %1, i64 noundef %8) #8
  %10 = xor i32 %9, -1
  store i32 %10, ptr %3, align 1
  ret i32 0
}

; Function Attrs: fn_ret_thunk_extern mustprogress nofree norecurse nosync nounwind null_pointer_is_valid willreturn memory(argmem: readwrite)
define internal noundef i32 @chksum_setkey(ptr nocapture noundef writeonly %0, ptr nocapture noundef readonly %1, i32 noundef %2) #4 align 16 {
  %4 = icmp eq i32 %2, 4
  br i1 %4, label %5, label %8

5:                                                ; preds = %3
  %6 = getelementptr inbounds i8, ptr %0, i64 40
  %7 = load i32, ptr %1, align 1
  store i32 %7, ptr %6, align 4
  br label %8

8:                                                ; preds = %5, %3
  %9 = phi i32 [ 0, %5 ], [ -22, %3 ]
  ret i32 %9
}

; Function Attrs: fn_ret_thunk_extern mustprogress nofree norecurse nosync nounwind null_pointer_is_valid willreturn memory(argmem: write)
define internal noundef i32 @crc32c_cra_init(ptr nocapture noundef writeonly %0) #5 align 16 {
  %2 = getelementptr inbounds i8, ptr %0, i64 32
  store i32 -1, ptr %2, align 4
  ret i32 0
}

; Function Attrs: mustprogress nofree nounwind null_pointer_is_valid willreturn memory(read)
declare dso_local i32 @__crc32c_le(i32 noundef, ptr noundef, i64 noundef) local_unnamed_addr #6

; Function Attrs: null_pointer_is_valid
declare dso_local i32 @crypto_register_shash(ptr noundef) local_unnamed_addr #1


!llvm.module.flags = !{!0, !1, !2, !3, !4}

!0 = !{i32 1, !"wchar_size", i32 2}
!1 = !{i32 8, !"cf-protection-branch", i32 1}
!2 = !{i32 4, !"function_return_thunk_extern", i32 1}
!3 = !{i32 4, !"indirect_branch_cs_prefix", i32 1}
!4 = !{i32 4, !"SkipRaxSetup", i32 1}
